; Function Attrs: mustprogress nounwind uwtable
define dso_local noundef zeroext i1 @_ZN5clang4Sema13checkArgCountEPNS_8CallExprEj(ptr noundef nonnull align 8 dereferenceable(17560) %0, ptr noundef %1, i32 noundef %2) local_unnamed_addr #0 align 2 {
  %4 = alloca i32, align 4
  %5 = alloca i32, align 4
  %6 = alloca %"class.clang::SemaBase::SemaDiagnosticBuilder", align 8
  %7 = alloca i32, align 4
  %8 = alloca i32, align 4
  %9 = alloca %"class.clang::SourceRange", align 8
  store i32 %2, ptr %4, align 4
  %10 = getelementptr inbounds nuw i8, ptr %1, i64 16
  %11 = load i32, ptr %10, align 8
  store i32 %11, ptr %5, align 4
  %12 = icmp eq i32 %11, %2
  br i1 %12, label %50, label %13

13:                                               ; preds = %3
  %14 = tail call noundef zeroext i1 @_ZN5clang4Sema20checkArgCountAtLeastEPNS_8CallExprEj(ptr noundef nonnull align 8 dereferenceable(17560) %0, ptr noundef nonnull %1, i32 noundef %2)
  br i1 %14, label %50, label %15

15:                                               ; preds = %13
  %16 = load i32, ptr %1, align 8
  %17 = lshr i32 %16, 24
  %18 = zext nneg i32 %17 to i64
  %19 = getelementptr inbounds i8, ptr %1, i64 %18
  %20 = getelementptr inbounds i8, ptr %19, i64 8
  %21 = lshr i32 %16, 18
  %22 = and i32 %21, 1
  %23 = zext nneg i32 %22 to i64
  %24 = getelementptr inbounds ptr, ptr %20, i64 %23
  %25 = zext i32 %2 to i64
  %26 = getelementptr inbounds ptr, ptr %24, i64 %25
  %27 = load ptr, ptr %26, align 8
  %28 = tail call i32 @_ZNK5clang4Stmt11getBeginLocEv(ptr noundef nonnull align 8 dereferenceable(8) %27) #26
  %29 = getelementptr inbounds i8, ptr %0, i64 8
  call void @_ZN5clang8SemaBase4DiagENS_14SourceLocationEjb(ptr dead_on_unwind nonnull writable sret(%"class.clang::SemaBase::SemaDiagnosticBuilder") align 8 %6, ptr noundef nonnull align 8 dereferenceable(8) %29, i32 %28, i32 noundef 4863, i1 noundef zeroext false) #25
  store i32 0, ptr %7, align 4
  %30 = call noundef nonnull align 8 dereferenceable(96) ptr @_ZNK5clang8SemaBase21SemaDiagnosticBuilderlsIivEERKS1_OT_(ptr noundef nonnull align 8 dereferenceable(96) %6, ptr noundef nonnull align 4 dereferenceable(4) %7)
  %31 = call noundef nonnull align 8 dereferenceable(96) ptr @_ZN5clanglsIjEERKNS_8SemaBase21SemaDiagnosticBuilderES4_RKT_(ptr noundef nonnull align 8 dereferenceable(96) %30, ptr noundef nonnull align 4 dereferenceable(4) %4)
  %32 = call noundef nonnull align 8 dereferenceable(96) ptr @_ZN5clanglsIjEERKNS_8SemaBase21SemaDiagnosticBuilderES4_RKT_(ptr noundef nonnull align 8 dereferenceable(96) %31, ptr noundef nonnull align 4 dereferenceable(4) %5)
  store i32 0, ptr %8, align 4
  %33 = call noundef nonnull align 8 dereferenceable(96) ptr @_ZNK5clang8SemaBase21SemaDiagnosticBuilderlsIivEERKS1_OT_(ptr noundef nonnull align 8 dereferenceable(96) %32, ptr noundef nonnull align 4 dereferenceable(4) %8)
  %34 = load i32, ptr %1, align 8
  %35 = lshr i32 %34, 24
  %36 = zext nneg i32 %35 to i64
  %37 = getelementptr inbounds i8, ptr %1, i64 %36
  %38 = getelementptr inbounds i8, ptr %37, i64 8
  %39 = lshr i32 %34, 18
  %40 = and i32 %39, 1
  %41 = zext nneg i32 %40 to i64
  %42 = getelementptr inbounds ptr, ptr %38, i64 %41
  %43 = getelementptr inbounds i8, ptr %42, i64 8
  %44 = load ptr, ptr %43, align 8
  %45 = call i64 @_ZNK5clang4Stmt14getSourceRangeEv(ptr noundef nonnull align 8 dereferenceable(8) %44) #26
  store i64 %45, ptr %9, align 8
  %46 = call noundef nonnull align 8 dereferenceable(96) ptr @_ZNK5clang8SemaBase21SemaDiagnosticBuilderlsINS_11SourceRangeEvEERKS1_OT_(ptr noundef nonnull align 8 dereferenceable(96) %33, ptr noundef nonnull align 4 dereferenceable(8) %9)
  %47 = getelementptr inbounds i8, ptr %46, i64 80
  %48 = load i8, ptr %47, align 8
  %49 = trunc i8 %48 to i1
  call void @_ZN5clang8SemaBase21SemaDiagnosticBuilderD1Ev(ptr noundef nonnull align 8 dereferenceable(96) %6) #25
  br label %50

50:                                               ; preds = %13, %3, %15
  %.0 = phi i1 [ %49, %15 ], [ false, %3 ], [ true, %13 ]
  ret i1 %.0
}